(lp0
S'poi'
p1
aS'deferral_payments'
p2
aS'exercised_stock_options'
p3
aS'bonus'
p4
aS'restricted_stock'
p5
aS'restricted_stock_deferred'
p6
aS'director_fees'
p7
aS'long_term_incentive'
p8
aS'deferred_income'
p9
aS'expenses'
p10
ag4
a.